(dp0
S'/home/hassouna/perception/rs_ws/src/robosherlock/robosherlock/descriptors/typesystem/core_types.xml'
p1
F1627033585.3935783
sS'/home/hassouna/perception/rs_ws/src/robosherlock/robosherlock/descriptors/typesystem/pcl_types.xml'
p2
F1627033585.3935783
sS'/home/hassouna/perception/rs_ws/src/robosherlock/robosherlock/descriptors/typesystem/human_types.xml'
p3
F1627033585.3935783
sS'/home/hassouna/perception/rs_ws/src/robosherlock/robosherlock/descriptors/typesystem/cv_types.xml'
p4
F1627033585.3935783
sS'/home/hassouna/perception/rs_ws/src/robosherlock/robosherlock/descriptors/typesystem/scene_types.xml'
p5
F1627033585.3935783
sS'/home/hassouna/perception/rs_ws/src/robosherlock/robosherlock/scripts/generate_typesystem.py'
p6
F1626961016.3544834
sS'/home/hassouna/perception/rs_ws/src/robosherlock/robosherlock/descriptors/typesystem/tf_types.xml'
p7
F1627033585.3935783
sS'/home/hassouna/perception/rs_ws/src/robosherlock/robosherlock/descriptors/typesystem/annotation_types.xml'
p8
F1627033585.3935783
sS'/home/hassouna/perception/rs_ws/src/robosherlock/robosherlock/descriptors/typesystem/ros_types.xml'
p9
F1627033585.3935783
s.